; Function Attrs: mustprogress uwtable
define hidden void @_ZN2cv3mcc10CChartDrawC2ERNS0_6CChartERKNS_17_InputOutputArrayE(ptr noundef nonnull align 8 dereferenceable(104) initializes((0, 8)) %0, ptr noundef nonnull align 8 dereferenceable(56) %1, ptr noundef nonnull align 8 dereferenceable(24) %2) unnamed_addr #7 align 2 {
  store ptr %1, ptr %0, align 8, !tbaa !34
  %4 = getelementptr inbounds nuw i8, ptr %0, i64 8
  %5 = tail call noundef i32 @_ZNK2cv11_InputArray4kindEv(ptr noundef nonnull align 8 dereferenceable(24) %2), !noalias !36
  %6 = icmp eq i32 %5, 65536
  br i1 %6, label %7, label %10

7:                                                ; preds = %3
  %8 = getelementptr inbounds nuw i8, ptr %2, i64 8
  %9 = load ptr, ptr %8, align 8, !tbaa !16, !noalias !36
  tail call void @_ZN2cv3MatC1ERKS0_(ptr noundef nonnull align 8 dereferenceable(96) %4, ptr noundef nonnull align 8 dereferenceable(96) %9)
  br label %_ZNK2cv11_InputArray6getMatEi.exit

10:                                               ; preds = %3
  tail call void @_ZNK2cv11_InputArray7getMat_Ei(ptr dead_on_unwind nonnull writable sret(%"class.cv::Mat") align 8 %4, ptr noundef nonnull align 8 dereferenceable(24) %2, i32 noundef -1)
  br label %_ZNK2cv11_InputArray6getMatEi.exit

_ZNK2cv11_InputArray6getMatEi.exit:               ; preds = %7, %10
  ret void
}